; Function Attrs: mustprogress uwtable
define void @_ZN6icu_7717GregorianCalendarC2EiiiiiiR10UErrorCode(ptr noundef nonnull align 8 dereferenceable(222) %0, i32 noundef %1, i32 noundef %2, i32 noundef %3, i32 noundef %4, i32 noundef %5, i32 noundef %6, ptr noundef nonnull align 4 dereferenceable(4) %7) unnamed_addr #1 align 2 personality ptr @__gxx_personality_v0 {
  tail call void @_ZN6icu_7717GregorianCalendarC2EiiiR10UErrorCode(ptr noundef nonnull align 8 dereferenceable(222) %0, i32 noundef %1, i32 noundef %2, i32 noundef %3, ptr noundef nonnull align 4 dereferenceable(4) %7)
  invoke void @_ZN6icu_778Calendar3setE19UCalendarDateFieldsi(ptr noundef nonnull align 8 dereferenceable(222) %0, i32 noundef 11, i32 noundef %4)
          to label %9 unwind label %10

9:                                                ; preds = %8
  invoke void @_ZN6icu_778Calendar3setE19UCalendarDateFieldsi(ptr noundef nonnull align 8 dereferenceable(222) %0, i32 noundef 12, i32 noundef %5)
          to label %_ZN6icu_7717GregorianCalendarC2EiiiiiR10UErrorCode.exit unwind label %10

common.resume:                                    ; preds = %13, %10
  %common.resume.op = phi { ptr, i32 } [ %11, %10 ], [ %14, %13 ]
  tail call void @_ZN6icu_778CalendarD2Ev(ptr noundef nonnull align 8 dereferenceable(222) %0) #9
  resume { ptr, i32 } %common.resume.op

10:                                               ; preds = %9, %8
  %11 = landingpad { ptr, i32 }
          cleanup
  br label %common.resume

_ZN6icu_7717GregorianCalendarC2EiiiiiR10UErrorCode.exit: ; preds = %9
  invoke void @_ZN6icu_778Calendar3setE19UCalendarDateFieldsi(ptr noundef nonnull align 8 dereferenceable(192) %0, i32 noundef 13, i32 noundef %6)
          to label %12 unwind label %13

12:                                               ; preds = %_ZN6icu_7717GregorianCalendarC2EiiiiiR10UErrorCode.exit
  ret void

13:                                               ; preds = %_ZN6icu_7717GregorianCalendarC2EiiiiiR10UErrorCode.exit
  %14 = landingpad { ptr, i32 }
          cleanup
  br label %common.resume
}